; Function Attrs: nounwind uwtable
define dso_local void @RemovePublicationRelById(i32 noundef %0) local_unnamed_addr #0 {
  %2 = tail call ptr @table_open(i32 noundef 6106, i32 noundef 3) #8
  %3 = zext i32 %0 to i64
  %4 = tail call ptr @SearchSysCache1(i32 noundef 52, i64 noundef %3) #8
  %.not = icmp eq ptr %4, null
  br i1 %.not, label %5, label %8

5:                                                ; preds = %1
  %6 = tail call zeroext i1 @errstart_cold(i32 noundef 21, ptr noundef null) #9
  tail call void @llvm.assume(i1 %6)
  %7 = tail call i32 (ptr, ...) @errmsg_internal(ptr noundef nonnull @.str.7, i32 noundef %0) #8
  tail call void @errfinish(ptr noundef nonnull @.str.1, i32 noundef 1522, ptr noundef nonnull @__func__.RemovePublicationRelById) #8
  unreachable

8:                                                ; preds = %1
  %9 = getelementptr i8, ptr %4, i64 16
  %.val = load ptr, ptr %9, align 8
  %10 = getelementptr inbounds nuw i8, ptr %.val, i64 22
  %11 = load i8, ptr %10, align 2
  %12 = zext i8 %11 to i64
  %13 = getelementptr inbounds nuw i8, ptr %.val, i64 %12
  %14 = getelementptr inbounds nuw i8, ptr %13, i64 8
  %15 = load i32, ptr %14, align 4
  %16 = tail call ptr @GetPubPartitionOptionRelations(ptr noundef null, i32 noundef 2, i32 noundef %15) #8
  %.not.i.i = icmp eq ptr %16, null
  br i1 %.not.i.i, label %InvalidatePublicationRels.exit, label %list_length.exit.i

list_length.exit.i:                               ; preds = %8
  %17 = getelementptr inbounds nuw i8, ptr %16, i64 4
  %18 = load i32, ptr %17, align 4
  %19 = icmp slt i32 %18, 4096
  br i1 %19, label %.lr.ph.i, label %28

.lr.ph.i:                                         ; preds = %list_length.exit.i
  %20 = getelementptr inbounds nuw i8, ptr %16, i64 16
  %21 = icmp sgt i32 %18, 0
  br i1 %21, label %.critedge.i, label %InvalidatePublicationRels.exit

.critedge.i:                                      ; preds = %.lr.ph.i, %.critedge.i
  %indvars.iv.i = phi i64 [ %indvars.iv.next.i, %.critedge.i ], [ 0, %.lr.ph.i ]
  %22 = load ptr, ptr %20, align 8
  %23 = getelementptr inbounds nuw %union.ListCell, ptr %22, i64 %indvars.iv.i
  %24 = load i32, ptr %23, align 8
  tail call void @CacheInvalidateRelcacheByRelid(i32 noundef %24) #8
  %indvars.iv.next.i = add nuw nsw i64 %indvars.iv.i, 1
  %25 = load i32, ptr %17, align 4
  %26 = sext i32 %25 to i64
  %27 = icmp slt i64 %indvars.iv.next.i, %26
  br i1 %27, label %.critedge.i, label %InvalidatePublicationRels.exit

28:                                               ; preds = %list_length.exit.i
  tail call void @CacheInvalidateRelcacheAll() #8
  br label %InvalidatePublicationRels.exit

InvalidatePublicationRels.exit:                   ; preds = %.critedge.i, %8, %.lr.ph.i, %28
  %29 = getelementptr inbounds nuw i8, ptr %4, i64 4
  tail call void @CatalogTupleDelete(ptr noundef %2, ptr noundef nonnull %29) #8
  tail call void @ReleaseSysCache(ptr noundef nonnull %4) #8
  tail call void @table_close(ptr noundef %2, i32 noundef 3) #8
  ret void
}